BL51 BANKED LINKER/LOCATER V6.22.2.0                                                    11/09/2021  19:12:01  PAGE 1


BL51 BANKED LINKER/LOCATER V6.22.2.0, INVOKED BY:
C:\KEIL_V5\C51\BIN\BL51.EXE .\Objects\Test.obj TO .\Objects\Test PRINT (.\Listings\Test.m51) RAMSIZE (256)


INPUT MODULES INCLUDED:
  .\Objects\Test.obj (TEST)


LINK MAP OF MODULE:  .\Objects\Test (TEST)


            TYPE    BASE      LENGTH    RELOCATION   SEGMENT NAME
            -----------------------------------------------------

            * * * * * * *   D A T A   M E M O R Y   * * * * * * *
            REG     0000H     0008H     ABSOLUTE     "REG BANK 0"

            * * * * * * *   C O D E   M E M O R Y   * * * * * * *
            CODE    0000H     01ADH     ABSOLUTE     



SYMBOL TABLE OF MODULE:  .\Objects\Test (TEST)

  VALUE           TYPE          NAME
  ----------------------------------

  -------         MODULE        TEST
  C:00B6H         SYMBOL        ALL_ZERO
  D:00F0H         SYMBOL        B
  C:0094H         SYMBOL        COUNT_DOWN
  C:0151H         SYMBOL        DEBOUNCE
  C:0098H         SYMBOL        DEC_LOOP
  C:00ACH         SYMBOL        DEC_R0
  C:00A4H         SYMBOL        DEC_R1
  C:018EH         SYMBOL        DEL_330_US
  C:0159H         SYMBOL        DE_1
  C:015BH         SYMBOL        DE_2
  C:00E4H         SYMBOL        DIVIDE
  C:00F2H         SYMBOL        EQUAL
  C:0139H         SYMBOL        EQ_DIV
  C:011EH         SYMBOL        EQ_MINUS
  C:012CH         SYMBOL        EQ_MUL
  D:00A8H         SYMBOL        IE
  C:00B9H         SYMBOL        INIT_CAL
  B:0088H.0       SYMBOL        IT0
  C:006BH         SYMBOL        KEYIN
  C:0067H         SYMBOL        KEY_OUT
  C:0193H         SYMBOL        KEY_TABLE
  C:0030H         SYMBOL        MAIN
  C:00D0H         SYMBOL        MINUS
  C:00DAH         SYMBOL        MULTIPLE
  C:0077H         SYMBOL        NEXT1
  C:007CH         SYMBOL        NEXT2
  C:0081H         SYMBOL        NEXT3
  C:0086H         SYMBOL        NEXT4
  C:008BH         SYMBOL        NEXT5
  C:0090H         SYMBOL        NEXT6
BL51 BANKED LINKER/LOCATER V6.22.2.0                                                  11/09/2021  19:12:01  PAGE 2


  D:0080H         SYMBOL        P0
  D:0090H         SYMBOL        P1
  D:00A0H         SYMBOL        P2
  C:00C6H         SYMBOL        PLUS
  C:00EEH         SYMBOL        POP_OUT
  D:00D0H         SYMBOL        PSW
  B:00D0H.3       SYMBOL        RS0
  B:00D0H.4       SYMBOL        RS1
  C:0143H         SYMBOL        SAVE_KEY_IN
  C:0050H         SYMBOL        SCAN
  C:009AH         SYMBOL        SHOW_LOOP
  C:0166H         SYMBOL        SHOW_SEG
  D:0081H         SYMBOL        SP
  C:004AH         SYMBOL        START_SCAN
  C:01A3H         SYMBOL        TABLE
  C:0000H         LINE#         16
  C:0003H         LINE#         18
  C:0013H         LINE#         20
  C:0030H         LINE#         23
  C:0033H         LINE#         24
  C:0036H         LINE#         25
  C:0038H         LINE#         26
  C:003AH         LINE#         28
  C:003CH         LINE#         29
  C:003EH         LINE#         30
  C:0040H         LINE#         31
  C:0042H         LINE#         32
  C:0044H         LINE#         33
  C:0046H         LINE#         34
  C:0048H         LINE#         35
  C:004AH         LINE#         37
  C:004CH         LINE#         38
  C:004EH         LINE#         39
  C:0050H         LINE#         41
  C:0051H         LINE#         42
  C:0053H         LINE#         43
  C:0056H         LINE#         44
  C:0057H         LINE#         45
  C:005AH         LINE#         46
  C:005BH         LINE#         47
  C:005EH         LINE#         48
  C:005FH         LINE#         49
  C:0062H         LINE#         50
  C:0063H         LINE#         51
  C:0064H         LINE#         52
  C:0065H         LINE#         53
  C:0067H         LINE#         54
  C:0069H         LINE#         55
  C:006BH         LINE#         57
  C:006DH         LINE#         58
  C:0070H         LINE#         59
  C:0071H         LINE#         60
  C:0072H         LINE#         62
  C:0075H         LINE#         63
  C:0077H         LINE#         64
  C:007AH         LINE#         65
  C:007CH         LINE#         66
BL51 BANKED LINKER/LOCATER V6.22.2.0                                                  11/09/2021  19:12:01  PAGE 3


  C:007FH         LINE#         67
  C:0081H         LINE#         68
  C:0084H         LINE#         69
  C:0086H         LINE#         70
  C:0089H         LINE#         71
  C:008BH         LINE#         72
  C:008EH         LINE#         73
  C:0090H         LINE#         74
  C:0092H         LINE#         75
  C:0094H         LINE#         77
  C:0096H         LINE#         78
  C:0098H         LINE#         80
  C:009AH         LINE#         81
  C:009CH         LINE#         82
  C:009EH         LINE#         83
  C:009FH         LINE#         84
  C:00A1H         LINE#         85
  C:00A2H         LINE#         86
  C:00A4H         LINE#         87
  C:00A5H         LINE#         88
  C:00A7H         LINE#         89
  C:00A8H         LINE#         90
  C:00AAH         LINE#         91
  C:00ACH         LINE#         92
  C:00ADH         LINE#         93
  C:00AFH         LINE#         94
  C:00B0H         LINE#         95
  C:00B2H         LINE#         96
  C:00B4H         LINE#         97
  C:00B6H         LINE#         98
  C:00B8H         LINE#         99
  C:00B9H         LINE#         101
  C:00BAH         LINE#         102
  C:00BBH         LINE#         103
  C:00BCH         LINE#         104
  C:00BDH         LINE#         105
  C:00BEH         LINE#         106
  C:00BFH         LINE#         107
  C:00C1H         LINE#         108
  C:00C3H         LINE#         109
  C:00C5H         LINE#         110
  C:00C6H         LINE#         112
  C:00C8H         LINE#         113
  C:00CAH         LINE#         114
  C:00CCH         LINE#         115
  C:00CEH         LINE#         116
  C:00D0H         LINE#         118
  C:00D2H         LINE#         119
  C:00D4H         LINE#         120
  C:00D6H         LINE#         121
  C:00D8H         LINE#         122
  C:00DAH         LINE#         124
  C:00DCH         LINE#         125
  C:00DEH         LINE#         126
  C:00E0H         LINE#         127
  C:00E2H         LINE#         128
  C:00E4H         LINE#         130
BL51 BANKED LINKER/LOCATER V6.22.2.0                                                  11/09/2021  19:12:01  PAGE 4


  C:00E6H         LINE#         131
  C:00E8H         LINE#         132
  C:00EAH         LINE#         133
  C:00ECH         LINE#         134
  C:00EEH         LINE#         136
  C:00F0H         LINE#         137
  C:00F2H         LINE#         139
  C:00F4H         LINE#         140
  C:00F6H         LINE#         141
  C:00F9H         LINE#         142
  C:00FBH         LINE#         143
  C:00FDH         LINE#         144
  C:00FEH         LINE#         145
  C:0100H         LINE#         146
  C:0102H         LINE#         147
  C:0103H         LINE#         149
  C:0105H         LINE#         150
  C:0107H         LINE#         151
  C:0108H         LINE#         152
  C:010AH         LINE#         153
  C:010CH         LINE#         155
  C:010EH         LINE#         156
  C:0110H         LINE#         157
  C:0112H         LINE#         159
  C:0115H         LINE#         160
  C:0116H         LINE#         161
  C:0117H         LINE#         162
  C:0119H         LINE#         163
  C:011BH         LINE#         164
  C:011DH         LINE#         165
  C:011EH         LINE#         166
  C:0121H         LINE#         167
  C:0122H         LINE#         168
  C:0124H         LINE#         169
  C:0126H         LINE#         170
  C:0127H         LINE#         171
  C:0129H         LINE#         172
  C:012BH         LINE#         173
  C:012CH         LINE#         174
  C:012FH         LINE#         175
  C:0130H         LINE#         176
  C:0132H         LINE#         177
  C:0133H         LINE#         178
  C:0134H         LINE#         179
  C:0136H         LINE#         180
  C:0138H         LINE#         181
  C:0139H         LINE#         182
  C:013AH         LINE#         183
  C:013CH         LINE#         184
  C:013DH         LINE#         185
  C:013EH         LINE#         186
  C:0140H         LINE#         187
  C:0142H         LINE#         188
  C:0143H         LINE#         190
  C:0145H         LINE#         191
  C:0147H         LINE#         192
  C:0148H         LINE#         193
BL51 BANKED LINKER/LOCATER V6.22.2.0                                                  11/09/2021  19:12:01  PAGE 5


  C:0149H         LINE#         194
  C:014AH         LINE#         195
  C:014BH         LINE#         196
  C:014CH         LINE#         197
  C:014DH         LINE#         198
  C:014EH         LINE#         199
  C:0150H         LINE#         200
  C:0151H         LINE#         202
  C:0153H         LINE#         203
  C:0155H         LINE#         204
  C:0157H         LINE#         205
  C:0159H         LINE#         206
  C:015BH         LINE#         207
  C:015DH         LINE#         208
  C:015FH         LINE#         209
  C:0161H         LINE#         210
  C:0163H         LINE#         211
  C:0165H         LINE#         212
  C:0166H         LINE#         214
  C:0169H         LINE#         215
  C:016BH         LINE#         216
  C:016DH         LINE#         218
  C:016FH         LINE#         219
  C:0170H         LINE#         220
  C:0171H         LINE#         221
  C:0173H         LINE#         222
  C:0175H         LINE#         223
  C:0177H         LINE#         225
  C:0179H         LINE#         226
  C:017AH         LINE#         227
  C:017BH         LINE#         228
  C:017DH         LINE#         229
  C:017FH         LINE#         230
  C:0181H         LINE#         232
  C:0183H         LINE#         233
  C:0184H         LINE#         234
  C:0185H         LINE#         235
  C:0187H         LINE#         236
  C:0189H         LINE#         237
  C:018BH         LINE#         239
  C:018DH         LINE#         240
  C:018EH         LINE#         242
  C:0190H         LINE#         243
  C:0192H         LINE#         244
  -------         ENDMOD        TEST

******************************************************************************
* RESTRICTED VERSION WITH 0800H BYTE CODE SIZE LIMIT; USED: 0183H BYTE (18%) *
******************************************************************************

Program Size: data=8.0 xdata=0 code=429
LINK/LOCATE RUN COMPLETE.  0 WARNING(S),  0 ERROR(S)
